target datalayout = "e-m:e-p270:32:32-p271:32:32-p272:64:64-i64:64-i128:128-f80:128-n8:16:32:64-S128"
target triple = "x86_64-pc-linux-gnu"

; Function Attrs: nounwind uwtable
define hidden ptr @lj_strfmt_wint(ptr noundef %0, i32 noundef %1) #0 {
  %3 = alloca ptr, align 8
  %4 = alloca i32, align 4
  %5 = alloca i32, align 4
  %6 = alloca i32, align 4
  %7 = alloca i32, align 4
  %8 = alloca i32, align 4
  %9 = alloca i32, align 4
  %10 = alloca i32, align 4
  %11 = alloca i32, align 4
  %12 = alloca i32, align 4
  %13 = alloca i32, align 4
  %14 = alloca i32, align 4
  store ptr %0, ptr %3, align 8, !tbaa !13
  store i32 %1, ptr %4, align 4, !tbaa !17
  call void @llvm.lifetime.start.p0(i64 4, ptr %5) #10
  %15 = load i32, ptr %4, align 4, !tbaa !17
  store i32 %15, ptr %5, align 4, !tbaa !17
  %16 = load i32, ptr %4, align 4, !tbaa !17
  %17 = icmp slt i32 %16, 0
  br i1 %17, label %18, label %24

18:                                               ; preds = %2
  %19 = load i32, ptr %5, align 4, !tbaa !17
  %20 = xor i32 %19, -1
  %21 = add i32 %20, 1
  store i32 %21, ptr %5, align 4, !tbaa !17
  %22 = load ptr, ptr %3, align 8, !tbaa !13
  %23 = getelementptr inbounds nuw i8, ptr %22, i32 1
  store ptr %23, ptr %3, align 8, !tbaa !13
  store i8 45, ptr %22, align 1, !tbaa !16
  br label %24

24:                                               ; preds = %18, %2
  %25 = load i32, ptr %5, align 4, !tbaa !17
  %26 = icmp ult i32 %25, 10000
  br i1 %26, label %27, label %40

27:                                               ; preds = %24
  %28 = load i32, ptr %5, align 4, !tbaa !17
  %29 = icmp ult i32 %28, 10
  br i1 %29, label %30, label %31

30:                                               ; preds = %27
  br label %174

31:                                               ; preds = %27
  %32 = load i32, ptr %5, align 4, !tbaa !17
  %33 = icmp ult i32 %32, 100
  br i1 %33, label %34, label %35

34:                                               ; preds = %31
  br label %161

35:                                               ; preds = %31
  %36 = load i32, ptr %5, align 4, !tbaa !17
  %37 = icmp ult i32 %36, 1000
  br i1 %37, label %38, label %39

38:                                               ; preds = %35
  br label %148

39:                                               ; preds = %35
  br label %135

40:                                               ; preds = %24
  call void @llvm.lifetime.start.p0(i64 4, ptr %6) #10
  %41 = load i32, ptr %5, align 4, !tbaa !17
  %42 = udiv i32 %41, 10000
  store i32 %42, ptr %6, align 4, !tbaa !17
  %43 = load i32, ptr %6, align 4, !tbaa !17
  %44 = mul i32 %43, 10000
  %45 = load i32, ptr %5, align 4, !tbaa !17
  %46 = sub i32 %45, %44
  store i32 %46, ptr %5, align 4, !tbaa !17
  %47 = load i32, ptr %6, align 4, !tbaa !17
  %48 = icmp ult i32 %47, 10000
  br i1 %48, label %49, label %62

49:                                               ; preds = %40
  %50 = load i32, ptr %6, align 4, !tbaa !17
  %51 = icmp ult i32 %50, 10
  br i1 %51, label %52, label %53

52:                                               ; preds = %49
  br label %129

53:                                               ; preds = %49
  %54 = load i32, ptr %6, align 4, !tbaa !17
  %55 = icmp ult i32 %54, 100
  br i1 %55, label %56, label %57

56:                                               ; preds = %53
  br label %116

57:                                               ; preds = %53
  %58 = load i32, ptr %6, align 4, !tbaa !17
  %59 = icmp ult i32 %58, 1000
  br i1 %59, label %60, label %61

60:                                               ; preds = %57
  br label %103

61:                                               ; preds = %57
  br label %90

62:                                               ; preds = %40
  call void @llvm.lifetime.start.p0(i64 4, ptr %7) #10
  %63 = load i32, ptr %6, align 4, !tbaa !17
  %64 = udiv i32 %63, 10000
  store i32 %64, ptr %7, align 4, !tbaa !17
  %65 = load i32, ptr %7, align 4, !tbaa !17
  %66 = mul i32 %65, 10000
  %67 = load i32, ptr %6, align 4, !tbaa !17
  %68 = sub i32 %67, %66
  store i32 %68, ptr %6, align 4, !tbaa !17
  %69 = load i32, ptr %7, align 4, !tbaa !17
  %70 = icmp uge i32 %69, 10
  br i1 %70, label %71, label %84

71:                                               ; preds = %62
  call void @llvm.lifetime.start.p0(i64 4, ptr %8) #10
  %72 = load i32, ptr %7, align 4, !tbaa !17
  %73 = mul i32 %72, 103
  %74 = lshr i32 %73, 10
  store i32 %74, ptr %8, align 4, !tbaa !17
  %75 = load i32, ptr %8, align 4, !tbaa !17
  %76 = mul i32 %75, 10
  %77 = load i32, ptr %7, align 4, !tbaa !17
  %78 = sub i32 %77, %76
  store i32 %78, ptr %7, align 4, !tbaa !17
  %79 = load i32, ptr %8, align 4, !tbaa !17
  %80 = add i32 48, %79
  %81 = trunc i32 %80 to i8
  %82 = load ptr, ptr %3, align 8, !tbaa !13
  %83 = getelementptr inbounds nuw i8, ptr %82, i32 1
  store ptr %83, ptr %3, align 8, !tbaa !13
  store i8 %81, ptr %82, align 1, !tbaa !16
  call void @llvm.lifetime.end.p0(i64 4, ptr %8) #10
  br label %84

84:                                               ; preds = %71, %62
  %85 = load i32, ptr %7, align 4, !tbaa !17
  %86 = add i32 48, %85
  %87 = trunc i32 %86 to i8
  %88 = load ptr, ptr %3, align 8, !tbaa !13
  %89 = getelementptr inbounds nuw i8, ptr %88, i32 1
  store ptr %89, ptr %3, align 8, !tbaa !13
  store i8 %87, ptr %88, align 1, !tbaa !16
  call void @llvm.lifetime.end.p0(i64 4, ptr %7) #10
  br label %90

90:                                               ; preds = %84, %61
  call void @llvm.lifetime.start.p0(i64 4, ptr %9) #10
  %91 = load i32, ptr %6, align 4, !tbaa !17
  %92 = mul i32 %91, 8389
  %93 = lshr i32 %92, 23
  store i32 %93, ptr %9, align 4, !tbaa !17
  %94 = load i32, ptr %9, align 4, !tbaa !17
  %95 = mul i32 %94, 1000
  %96 = load i32, ptr %6, align 4, !tbaa !17
  %97 = sub i32 %96, %95
  store i32 %97, ptr %6, align 4, !tbaa !17
  %98 = load i32, ptr %9, align 4, !tbaa !17
  %99 = add i32 48, %98
  %100 = trunc i32 %99 to i8
  %101 = load ptr, ptr %3, align 8, !tbaa !13
  %102 = getelementptr inbounds nuw i8, ptr %101, i32 1
  store ptr %102, ptr %3, align 8, !tbaa !13
  store i8 %100, ptr %101, align 1, !tbaa !16
  call void @llvm.lifetime.end.p0(i64 4, ptr %9) #10
  br label %103

103:                                              ; preds = %90, %60
  call void @llvm.lifetime.start.p0(i64 4, ptr %10) #10
  %104 = load i32, ptr %6, align 4, !tbaa !17
  %105 = mul i32 %104, 41
  %106 = lshr i32 %105, 12
  store i32 %106, ptr %10, align 4, !tbaa !17
  %107 = load i32, ptr %10, align 4, !tbaa !17
  %108 = mul i32 %107, 100
  %109 = load i32, ptr %6, align 4, !tbaa !17
  %110 = sub i32 %109, %108
  store i32 %110, ptr %6, align 4, !tbaa !17
  %111 = load i32, ptr %10, align 4, !tbaa !17
  %112 = add i32 48, %111
  %113 = trunc i32 %112 to i8
  %114 = load ptr, ptr %3, align 8, !tbaa !13
  %115 = getelementptr inbounds nuw i8, ptr %114, i32 1
  store ptr %115, ptr %3, align 8, !tbaa !13
  store i8 %113, ptr %114, align 1, !tbaa !16
  call void @llvm.lifetime.end.p0(i64 4, ptr %10) #10
  br label %116

116:                                              ; preds = %103, %56
  call void @llvm.lifetime.start.p0(i64 4, ptr %11) #10
  %117 = load i32, ptr %6, align 4, !tbaa !17
  %118 = mul i32 %117, 103
  %119 = lshr i32 %118, 10
  store i32 %119, ptr %11, align 4, !tbaa !17
  %120 = load i32, ptr %11, align 4, !tbaa !17
  %121 = mul i32 %120, 10
  %122 = load i32, ptr %6, align 4, !tbaa !17
  %123 = sub i32 %122, %121
  store i32 %123, ptr %6, align 4, !tbaa !17
  %124 = load i32, ptr %11, align 4, !tbaa !17
  %125 = add i32 48, %124
  %126 = trunc i32 %125 to i8
  %127 = load ptr, ptr %3, align 8, !tbaa !13
  %128 = getelementptr inbounds nuw i8, ptr %127, i32 1
  store ptr %128, ptr %3, align 8, !tbaa !13
  store i8 %126, ptr %127, align 1, !tbaa !16
  call void @llvm.lifetime.end.p0(i64 4, ptr %11) #10
  br label %129

129:                                              ; preds = %116, %52
  %130 = load i32, ptr %6, align 4, !tbaa !17
  %131 = add i32 48, %130
  %132 = trunc i32 %131 to i8
  %133 = load ptr, ptr %3, align 8, !tbaa !13
  %134 = getelementptr inbounds nuw i8, ptr %133, i32 1
  store ptr %134, ptr %3, align 8, !tbaa !13
  store i8 %132, ptr %133, align 1, !tbaa !16
  call void @llvm.lifetime.end.p0(i64 4, ptr %6) #10
  br label %135

135:                                              ; preds = %129, %39
  call void @llvm.lifetime.start.p0(i64 4, ptr %12) #10
  %136 = load i32, ptr %5, align 4, !tbaa !17
  %137 = mul i32 %136, 8389
  %138 = lshr i32 %137, 23
  store i32 %138, ptr %12, align 4, !tbaa !17
  %139 = load i32, ptr %12, align 4, !tbaa !17
  %140 = mul i32 %139, 1000
  %141 = load i32, ptr %5, align 4, !tbaa !17
  %142 = sub i32 %141, %140
  store i32 %142, ptr %5, align 4, !tbaa !17
  %143 = load i32, ptr %12, align 4, !tbaa !17
  %144 = add i32 48, %143
  %145 = trunc i32 %144 to i8
  %146 = load ptr, ptr %3, align 8, !tbaa !13
  %147 = getelementptr inbounds nuw i8, ptr %146, i32 1
  store ptr %147, ptr %3, align 8, !tbaa !13
  store i8 %145, ptr %146, align 1, !tbaa !16
  call void @llvm.lifetime.end.p0(i64 4, ptr %12) #10
  br label %148

148:                                              ; preds = %135, %38
  call void @llvm.lifetime.start.p0(i64 4, ptr %13) #10
  %149 = load i32, ptr %5, align 4, !tbaa !17
  %150 = mul i32 %149, 41
  %151 = lshr i32 %150, 12
  store i32 %151, ptr %13, align 4, !tbaa !17
  %152 = load i32, ptr %13, align 4, !tbaa !17
  %153 = mul i32 %152, 100
  %154 = load i32, ptr %5, align 4, !tbaa !17
  %155 = sub i32 %154, %153
  store i32 %155, ptr %5, align 4, !tbaa !17
  %156 = load i32, ptr %13, align 4, !tbaa !17
  %157 = add i32 48, %156
  %158 = trunc i32 %157 to i8
  %159 = load ptr, ptr %3, align 8, !tbaa !13
  %160 = getelementptr inbounds nuw i8, ptr %159, i32 1
  store ptr %160, ptr %3, align 8, !tbaa !13
  store i8 %158, ptr %159, align 1, !tbaa !16
  call void @llvm.lifetime.end.p0(i64 4, ptr %13) #10
  br label %161

161:                                              ; preds = %148, %34
  call void @llvm.lifetime.start.p0(i64 4, ptr %14) #10
  %162 = load i32, ptr %5, align 4, !tbaa !17
  %163 = mul i32 %162, 103
  %164 = lshr i32 %163, 10
  store i32 %164, ptr %14, align 4, !tbaa !17
  %165 = load i32, ptr %14, align 4, !tbaa !17
  %166 = mul i32 %165, 10
  %167 = load i32, ptr %5, align 4, !tbaa !17
  %168 = sub i32 %167, %166
  store i32 %168, ptr %5, align 4, !tbaa !17
  %169 = load i32, ptr %14, align 4, !tbaa !17
  %170 = add i32 48, %169
  %171 = trunc i32 %170 to i8
  %172 = load ptr, ptr %3, align 8, !tbaa !13
  %173 = getelementptr inbounds nuw i8, ptr %172, i32 1
  store ptr %173, ptr %3, align 8, !tbaa !13
  store i8 %171, ptr %172, align 1, !tbaa !16
  call void @llvm.lifetime.end.p0(i64 4, ptr %14) #10
  br label %174

174:                                              ; preds = %161, %30
  %175 = load i32, ptr %5, align 4, !tbaa !17
  %176 = add i32 48, %175
  %177 = trunc i32 %176 to i8
  %178 = load ptr, ptr %3, align 8, !tbaa !13
  %179 = getelementptr inbounds nuw i8, ptr %178, i32 1
  store ptr %179, ptr %3, align 8, !tbaa !13
  store i8 %177, ptr %178, align 1, !tbaa !16
  %180 = load ptr, ptr %3, align 8, !tbaa !13
  call void @llvm.lifetime.end.p0(i64 4, ptr %5) #10
  ret ptr %180
}