; Function Attrs: mustprogress nofree norecurse nosync nounwind willreturn memory(write, inaccessiblemem: none) uwtable
define hidden nonnull ptr @lj_strfmt_wint(ptr noundef writeonly captures(ret: address, provenance) %0, i32 noundef %1) local_unnamed_addr #2 {
  %3 = icmp slt i32 %1, 0
  br i1 %3, label %4, label %7

4:                                                ; preds = %2
  %5 = sub i32 0, %1
  %6 = getelementptr inbounds nuw i8, ptr %0, i64 1
  store i8 45, ptr %0, align 1, !tbaa !13
  br label %7

7:                                                ; preds = %4, %2
  %.060 = phi i32 [ %5, %4 ], [ %1, %2 ]
  %.0 = phi ptr [ %6, %4 ], [ %0, %2 ]
  %8 = icmp ult i32 %.060, 10000
  br i1 %8, label %9, label %15

9:                                                ; preds = %7
  %10 = icmp samesign ult i32 %.060, 10
  br i1 %10, label %86, label %11

11:                                               ; preds = %9
  %12 = icmp samesign ult i32 %.060, 100
  br i1 %12, label %79, label %13

13:                                               ; preds = %11
  %14 = icmp samesign ult i32 %.060, 1000
  br i1 %14, label %72, label %65

15:                                               ; preds = %7
  %16 = udiv i32 %.060, 10000
  %.neg = mul nsw i32 %16, -10000
  %17 = add i32 %.neg, %.060
  %18 = icmp ult i32 %.060, 100000000
  br i1 %18, label %19, label %25

19:                                               ; preds = %15
  %20 = icmp samesign ult i32 %.060, 100000
  br i1 %20, label %61, label %21

21:                                               ; preds = %19
  %22 = icmp samesign ult i32 %.060, 1000000
  br i1 %22, label %54, label %23

23:                                               ; preds = %21
  %24 = icmp samesign ult i32 %.060, 10000000
  br i1 %24, label %47, label %40

25:                                               ; preds = %15
  %26 = udiv i32 %.060, 100000000
  %.neg76 = mul nsw i32 %26, -10000
  %27 = add nsw i32 %.neg76, %16
  %28 = icmp ugt i32 %.060, 999999999
  br i1 %28, label %29, label %36

29:                                               ; preds = %25
  %30 = mul nuw nsw i32 %26, 103
  %31 = lshr i32 %30, 10
  %.neg77 = mul nsw i32 %31, -10
  %32 = add nsw i32 %.neg77, %26
  %33 = trunc nuw nsw i32 %31 to i8
  %34 = or disjoint i8 %33, 48
  %35 = getelementptr inbounds nuw i8, ptr %.0, i64 1
  store i8 %34, ptr %.0, align 1, !tbaa !13
  br label %36

36:                                               ; preds = %29, %25
  %.069 = phi i32 [ %32, %29 ], [ %26, %25 ]
  %.9 = phi ptr [ %35, %29 ], [ %.0, %25 ]
  %37 = trunc nsw i32 %.069 to i8
  %38 = add nsw i8 %37, 48
  %39 = getelementptr inbounds nuw i8, ptr %.9, i64 1
  store i8 %38, ptr %.9, align 1, !tbaa !13
  br label %40

40:                                               ; preds = %23, %36
  %.368 = phi i32 [ %16, %23 ], [ %27, %36 ]
  %.8 = phi ptr [ %.0, %23 ], [ %39, %36 ]
  %41 = mul nsw i32 %.368, 8389
  %42 = lshr i32 %41, 23
  %.neg78 = mul nsw i32 %42, -1000
  %43 = add nsw i32 %.neg78, %.368
  %44 = trunc i32 %42 to i8
  %45 = add i8 %44, 48
  %46 = getelementptr inbounds nuw i8, ptr %.8, i64 1
  store i8 %45, ptr %.8, align 1, !tbaa !13
  br label %47

47:                                               ; preds = %23, %40
  %.267 = phi i32 [ %16, %23 ], [ %43, %40 ]
  %.7 = phi ptr [ %.0, %23 ], [ %46, %40 ]
  %48 = mul nsw i32 %.267, 41
  %49 = lshr i32 %48, 12
  %.neg79 = mul nsw i32 %49, -100
  %50 = add nsw i32 %.neg79, %.267
  %51 = trunc i32 %49 to i8
  %52 = add i8 %51, 48
  %53 = getelementptr inbounds nuw i8, ptr %.7, i64 1
  store i8 %52, ptr %.7, align 1, !tbaa !13
  br label %54

54:                                               ; preds = %21, %47
  %.166 = phi i32 [ %16, %21 ], [ %50, %47 ]
  %.6 = phi ptr [ %.0, %21 ], [ %53, %47 ]
  %55 = mul i32 %.166, 103
  %56 = lshr i32 %55, 10
  %.neg80 = mul nsw i32 %56, -10
  %57 = add nsw i32 %.neg80, %.166
  %58 = trunc i32 %56 to i8
  %59 = add i8 %58, 48
  %60 = getelementptr inbounds nuw i8, ptr %.6, i64 1
  store i8 %59, ptr %.6, align 1, !tbaa !13
  br label %61

61:                                               ; preds = %19, %54
  %.065 = phi i32 [ %16, %19 ], [ %57, %54 ]
  %.5 = phi ptr [ %.0, %19 ], [ %60, %54 ]
  %62 = trunc i32 %.065 to i8
  %63 = add i8 %62, 48
  %64 = getelementptr inbounds nuw i8, ptr %.5, i64 1
  store i8 %63, ptr %.5, align 1, !tbaa !13
  br label %65

65:                                               ; preds = %13, %61
  %.464 = phi i32 [ %.060, %13 ], [ %17, %61 ]
  %.4 = phi ptr [ %.0, %13 ], [ %64, %61 ]
  %66 = mul i32 %.464, 8389
  %67 = lshr i32 %66, 23
  %.neg81 = mul nsw i32 %67, -1000
  %68 = add i32 %.neg81, %.464
  %69 = trunc i32 %67 to i8
  %70 = add i8 %69, 48
  %71 = getelementptr inbounds nuw i8, ptr %.4, i64 1
  store i8 %70, ptr %.4, align 1, !tbaa !13
  br label %72

72:                                               ; preds = %13, %65
  %.363 = phi i32 [ %.060, %13 ], [ %68, %65 ]
  %.3 = phi ptr [ %.0, %13 ], [ %71, %65 ]
  %73 = mul i32 %.363, 41
  %74 = lshr i32 %73, 12
  %.neg82 = mul nsw i32 %74, -100
  %75 = add i32 %.neg82, %.363
  %76 = trunc i32 %74 to i8
  %77 = add i8 %76, 48
  %78 = getelementptr inbounds nuw i8, ptr %.3, i64 1
  store i8 %77, ptr %.3, align 1, !tbaa !13
  br label %79

79:                                               ; preds = %11, %72
  %.262 = phi i32 [ %.060, %11 ], [ %75, %72 ]
  %.2 = phi ptr [ %.0, %11 ], [ %78, %72 ]
  %80 = mul i32 %.262, 103
  %81 = lshr i32 %80, 10
  %.neg83 = mul nsw i32 %81, -10
  %82 = add i32 %.neg83, %.262
  %83 = trunc i32 %81 to i8
  %84 = add i8 %83, 48
  %85 = getelementptr inbounds nuw i8, ptr %.2, i64 1
  store i8 %84, ptr %.2, align 1, !tbaa !13
  br label %86

86:                                               ; preds = %9, %79
  %.161 = phi i32 [ %.060, %9 ], [ %82, %79 ]
  %.1 = phi ptr [ %.0, %9 ], [ %85, %79 ]
  %87 = trunc i32 %.161 to i8
  %88 = add i8 %87, 48
  %89 = getelementptr inbounds nuw i8, ptr %.1, i64 1
  store i8 %88, ptr %.1, align 1, !tbaa !13
  ret ptr %89
}